target datalayout = "e-m:e-p270:32:32-p271:32:32-p272:64:64-i64:64-i128:128-f80:128-n8:16:32:64-S128"
target triple = "x86_64-pc-linux-gnu"

%struct.DnsTap = type { i32, i32, i32, i32, i32, i32, i32, i32, ptr, i32, i32, i32, i32, i8, i8, %struct.nstime_t, ptr, [256 x i8], [256 x i8], [256 x i8], i32 }
%struct.nstime_t = type { i64, i32 }

@dns_qname_stats = internal global i8 0, align 1
@st_str_packets = internal global ptr @.str.799, align 8
@st_node_packet_qr = internal global i32 -1, align 4
@.str.794 = private unnamed_addr constant [16 x i8] c"Unknown qr (%d)\00", align 1
@st_node_packet_qtypes = internal global i32 -1, align 4
@.str.795 = private unnamed_addr constant [25 x i8] c"Unknown packet type (%d)\00", align 1
@st_node_packet_qnames = internal global i32 -1, align 4
@st_node_packet_qclasses = internal global i32 -1, align 4
@.str.796 = private unnamed_addr constant [19 x i8] c"Unknown class (%d)\00", align 1
@st_node_packet_rcodes = internal global i32 -1, align 4
@.str.797 = private unnamed_addr constant [19 x i8] c"Unknown rcode (%d)\00", align 1
@st_node_packet_opcodes = internal global i32 -1, align 4
@.str.798 = private unnamed_addr constant [20 x i8] c"Unknown opcode (%d)\00", align 1
@st_str_packets_avg_size = internal global ptr @.str.891, align 8
@st_str_query_qname_len = internal global ptr @.str.892, align 8
@st_str_query_domains_l1 = internal global ptr @.str.893, align 8
@st_str_query_domains_l2 = internal global ptr @.str.894, align 8
@st_str_query_domains_l3 = internal global ptr @.str.895, align 8
@st_str_query_domains_lmore = internal global ptr @.str.896, align 8
@st_str_response_nquestions = internal global ptr @.str.897, align 8
@st_str_response_nanswers = internal global ptr @.str.898, align 8
@st_str_response_nauthorities = internal global ptr @.str.899, align 8
@st_str_response_nadditionals = internal global ptr @.str.900, align 8
@st_node_rr_types = internal global i32 -1, align 4
@st_str_service_unsolicited = internal global ptr @.str.901, align 8
@st_str_service_retransmission = internal global ptr @.str.902, align 8
@st_str_service_rrt = internal global ptr @.str.903, align 8
@dns_qr_vals = internal constant [3 x { i32, [4 x i8], ptr }] [{ i32, [4 x i8], ptr } { i32 0, [4 x i8] zeroinitializer, ptr @.str.800 }, { i32, [4 x i8], ptr } { i32 1, [4 x i8] zeroinitializer, ptr @.str.34 }, { i32, [4 x i8], ptr } zeroinitializer], align 16

; Function Attrs: null_pointer_is_valid sspstrong uwtable
define internal i32 @dns_stats_tree_packet(ptr noundef %0, ptr noundef %1, ptr noundef %2, ptr noundef %3, i32 noundef %4) #0 {
  %6 = alloca ptr, align 8
  %7 = alloca ptr, align 8
  %8 = alloca ptr, align 8
  %9 = alloca ptr, align 8
  %10 = alloca i32, align 4
  %11 = alloca ptr, align 8
  %12 = alloca ptr, align 8
  %13 = alloca i32, align 4
  store ptr %0, ptr %6, align 8
  store ptr %1, ptr %7, align 8
  store ptr %2, ptr %8, align 8
  store ptr %3, ptr %9, align 8
  store i32 %4, ptr %10, align 4
  call void @llvm.lifetime.start.p0(i64 8, ptr %11) #11
  %14 = load ptr, ptr %9, align 8
  store ptr %14, ptr %11, align 8
  %15 = load ptr, ptr %6, align 8
  %16 = load ptr, ptr @st_str_packets, align 8
  %17 = call i32 @stats_tree_manip_node_int(i32 noundef 0, ptr noundef %15, ptr noundef %16, i32 noundef 0, i1 noundef zeroext false, i32 noundef 1)
  %18 = load ptr, ptr %6, align 8
  %19 = load i32, ptr @st_node_packet_qr, align 4
  %20 = load ptr, ptr %11, align 8
  %21 = getelementptr inbounds nuw %struct.DnsTap, ptr %20, i32 0, i32 0
  %22 = load i32, ptr %21, align 8
  %23 = call ptr @val_to_str(i32 noundef %22, ptr noundef @dns_qr_vals, ptr noundef @.str.794)
  %24 = call i32 @stats_tree_tick_pivot(ptr noundef %18, i32 noundef %19, ptr noundef %23)
  %25 = load ptr, ptr %6, align 8
  %26 = load i32, ptr @st_node_packet_qtypes, align 4
  %27 = load ptr, ptr %11, align 8
  %28 = getelementptr inbounds nuw %struct.DnsTap, ptr %27, i32 0, i32 1
  %29 = load i32, ptr %28, align 4
  %30 = call ptr @val_to_str(i32 noundef %29, ptr noundef @dns_types_vals, ptr noundef @.str.795)
  %31 = call i32 @stats_tree_tick_pivot(ptr noundef %25, i32 noundef %26, ptr noundef %30)
  %32 = load i8, ptr @dns_qname_stats, align 1, !range !9, !noundef !10
  %33 = trunc i8 %32 to i1
  br i1 %33, label %34, label %46

34:                                               ; preds = %5
  %35 = load ptr, ptr %11, align 8
  %36 = getelementptr inbounds nuw %struct.DnsTap, ptr %35, i32 0, i32 6
  %37 = load i32, ptr %36, align 8
  %38 = icmp ugt i32 %37, 0
  br i1 %38, label %39, label %46

39:                                               ; preds = %34
  %40 = load ptr, ptr %6, align 8
  %41 = load i32, ptr @st_node_packet_qnames, align 4
  %42 = load ptr, ptr %11, align 8
  %43 = getelementptr inbounds nuw %struct.DnsTap, ptr %42, i32 0, i32 8
  %44 = load ptr, ptr %43, align 8
  %45 = call i32 @stats_tree_tick_pivot(ptr noundef %40, i32 noundef %41, ptr noundef %44)
  br label %46

46:                                               ; preds = %39, %34, %5
  %47 = load ptr, ptr %6, align 8
  %48 = load i32, ptr @st_node_packet_qclasses, align 4
  %49 = load ptr, ptr %11, align 8
  %50 = getelementptr inbounds nuw %struct.DnsTap, ptr %49, i32 0, i32 2
  %51 = load i32, ptr %50, align 8
  %52 = call ptr @val_to_str(i32 noundef %51, ptr noundef @dns_classes, ptr noundef @.str.796)
  %53 = call i32 @stats_tree_tick_pivot(ptr noundef %47, i32 noundef %48, ptr noundef %52)
  %54 = load ptr, ptr %6, align 8
  %55 = load i32, ptr @st_node_packet_rcodes, align 4
  %56 = load ptr, ptr %11, align 8
  %57 = getelementptr inbounds nuw %struct.DnsTap, ptr %56, i32 0, i32 3
  %58 = load i32, ptr %57, align 4
  %59 = call ptr @val_to_str(i32 noundef %58, ptr noundef @rcode_vals, ptr noundef @.str.797)
  %60 = call i32 @stats_tree_tick_pivot(ptr noundef %54, i32 noundef %55, ptr noundef %59)
  %61 = load ptr, ptr %6, align 8
  %62 = load i32, ptr @st_node_packet_opcodes, align 4
  %63 = load ptr, ptr %11, align 8
  %64 = getelementptr inbounds nuw %struct.DnsTap, ptr %63, i32 0, i32 4
  %65 = load i32, ptr %64, align 8
  %66 = call ptr @val_to_str(i32 noundef %65, ptr noundef @opcode_vals, ptr noundef @.str.798)
  %67 = call i32 @stats_tree_tick_pivot(ptr noundef %61, i32 noundef %62, ptr noundef %66)
  %68 = load ptr, ptr %6, align 8
  %69 = load ptr, ptr @st_str_packets_avg_size, align 8
  %70 = load ptr, ptr %11, align 8
  %71 = getelementptr inbounds nuw %struct.DnsTap, ptr %70, i32 0, i32 5
  %72 = load i32, ptr %71, align 4
  %73 = call i32 @stats_tree_manip_node_int(i32 noundef 2, ptr noundef %68, ptr noundef %69, i32 noundef 0, i1 noundef zeroext false, i32 noundef %72)
  %74 = load ptr, ptr %11, align 8
  %75 = getelementptr inbounds nuw %struct.DnsTap, ptr %74, i32 0, i32 0
  %76 = load i32, ptr %75, align 8
  %77 = icmp eq i32 %76, 0
  br i1 %77, label %78, label %105

78:                                               ; preds = %46
  %79 = load ptr, ptr %6, align 8
  %80 = load ptr, ptr @st_str_query_qname_len, align 8
  %81 = load ptr, ptr %11, align 8
  %82 = getelementptr inbounds nuw %struct.DnsTap, ptr %81, i32 0, i32 6
  %83 = load i32, ptr %82, align 8
  %84 = call i32 @stats_tree_manip_node_int(i32 noundef 2, ptr noundef %79, ptr noundef %80, i32 noundef 0, i1 noundef zeroext false, i32 noundef %83)
  %85 = load ptr, ptr %11, align 8
  %86 = getelementptr inbounds nuw %struct.DnsTap, ptr %85, i32 0, i32 7
  %87 = load i32, ptr %86, align 4
  switch i32 %87, label %100 [
    i32 1, label %88
    i32 2, label %92
    i32 3, label %96
  ]

88:                                               ; preds = %78
  %89 = load ptr, ptr %6, align 8
  %90 = load ptr, ptr @st_str_query_domains_l1, align 8
  %91 = call i32 @stats_tree_manip_node_int(i32 noundef 0, ptr noundef %89, ptr noundef %90, i32 noundef 0, i1 noundef zeroext false, i32 noundef 1)
  br label %104

92:                                               ; preds = %78
  %93 = load ptr, ptr %6, align 8
  %94 = load ptr, ptr @st_str_query_domains_l2, align 8
  %95 = call i32 @stats_tree_manip_node_int(i32 noundef 0, ptr noundef %93, ptr noundef %94, i32 noundef 0, i1 noundef zeroext false, i32 noundef 1)
  br label %104

96:                                               ; preds = %78
  %97 = load ptr, ptr %6, align 8
  %98 = load ptr, ptr @st_str_query_domains_l3, align 8
  %99 = call i32 @stats_tree_manip_node_int(i32 noundef 0, ptr noundef %97, ptr noundef %98, i32 noundef 0, i1 noundef zeroext false, i32 noundef 1)
  br label %104

100:                                              ; preds = %78
  %101 = load ptr, ptr %6, align 8
  %102 = load ptr, ptr @st_str_query_domains_lmore, align 8
  %103 = call i32 @stats_tree_manip_node_int(i32 noundef 0, ptr noundef %101, ptr noundef %102, i32 noundef 0, i1 noundef zeroext false, i32 noundef 1)
  br label %104

104:                                              ; preds = %100, %96, %92, %88
  br label %222

105:                                              ; preds = %46
  %106 = load ptr, ptr %6, align 8
  %107 = load ptr, ptr @st_str_response_nquestions, align 8
  %108 = load ptr, ptr %11, align 8
  %109 = getelementptr inbounds nuw %struct.DnsTap, ptr %108, i32 0, i32 9
  %110 = load i32, ptr %109, align 8
  %111 = call i32 @stats_tree_manip_node_int(i32 noundef 2, ptr noundef %106, ptr noundef %107, i32 noundef 0, i1 noundef zeroext false, i32 noundef %110)
  %112 = load ptr, ptr %6, align 8
  %113 = load ptr, ptr @st_str_response_nanswers, align 8
  %114 = load ptr, ptr %11, align 8
  %115 = getelementptr inbounds nuw %struct.DnsTap, ptr %114, i32 0, i32 10
  %116 = load i32, ptr %115, align 4
  %117 = call i32 @stats_tree_manip_node_int(i32 noundef 2, ptr noundef %112, ptr noundef %113, i32 noundef 0, i1 noundef zeroext false, i32 noundef %116)
  %118 = load ptr, ptr %6, align 8
  %119 = load ptr, ptr @st_str_response_nauthorities, align 8
  %120 = load ptr, ptr %11, align 8
  %121 = getelementptr inbounds nuw %struct.DnsTap, ptr %120, i32 0, i32 11
  %122 = load i32, ptr %121, align 8
  %123 = call i32 @stats_tree_manip_node_int(i32 noundef 2, ptr noundef %118, ptr noundef %119, i32 noundef 0, i1 noundef zeroext false, i32 noundef %122)
  %124 = load ptr, ptr %6, align 8
  %125 = load ptr, ptr @st_str_response_nadditionals, align 8
  %126 = load ptr, ptr %11, align 8
  %127 = getelementptr inbounds nuw %struct.DnsTap, ptr %126, i32 0, i32 12
  %128 = load i32, ptr %127, align 4
  %129 = call i32 @stats_tree_manip_node_int(i32 noundef 2, ptr noundef %124, ptr noundef %125, i32 noundef 0, i1 noundef zeroext false, i32 noundef %128)
  call void @llvm.lifetime.start.p0(i64 8, ptr %12) #11
  %130 = load ptr, ptr %11, align 8
  %131 = getelementptr inbounds nuw %struct.DnsTap, ptr %130, i32 0, i32 16
  %132 = load ptr, ptr %131, align 8
  %133 = call ptr @wmem_list_head(ptr noundef %132)
  store ptr %133, ptr %12, align 8
  br label %134

134:                                              ; preds = %148, %105
  %135 = load ptr, ptr %12, align 8
  %136 = icmp ne ptr %135, null
  br i1 %136, label %138, label %137

137:                                              ; preds = %134
  call void @llvm.lifetime.end.p0(i64 8, ptr %12) #11
  br label %151

138:                                              ; preds = %134
  call void @llvm.lifetime.start.p0(i64 4, ptr %13) #11
  %139 = load ptr, ptr %12, align 8
  %140 = call ptr @wmem_list_frame_data(ptr noundef %139)
  %141 = ptrtoint ptr %140 to i64
  %142 = trunc i64 %141 to i32
  store i32 %142, ptr %13, align 4
  %143 = load ptr, ptr %6, align 8
  %144 = load i32, ptr @st_node_rr_types, align 4
  %145 = load i32, ptr %13, align 4
  %146 = call ptr @val_to_str(i32 noundef %145, ptr noundef @dns_types_vals, ptr noundef @.str.795)
  %147 = call i32 @stats_tree_tick_pivot(ptr noundef %143, i32 noundef %144, ptr noundef %146)
  call void @llvm.lifetime.end.p0(i64 4, ptr %13) #11
  br label %148

148:                                              ; preds = %138
  %149 = load ptr, ptr %12, align 8
  %150 = call ptr @wmem_list_frame_next(ptr noundef %149)
  store ptr %150, ptr %12, align 8
  br label %134, !llvm.loop !11

151:                                              ; preds = %137
  %152 = load ptr, ptr %11, align 8
  %153 = getelementptr inbounds nuw %struct.DnsTap, ptr %152, i32 0, i32 13
  %154 = load i8, ptr %153, align 8, !range !9, !noundef !10
  %155 = trunc i8 %154 to i1
  br i1 %155, label %156, label %160

156:                                              ; preds = %151
  %157 = load ptr, ptr %6, align 8
  %158 = load ptr, ptr @st_str_service_unsolicited, align 8
  %159 = call i32 @stats_tree_manip_node_int(i32 noundef 0, ptr noundef %157, ptr noundef %158, i32 noundef 0, i1 noundef zeroext false, i32 noundef 1)
  br label %221

160:                                              ; preds = %151
  %161 = load ptr, ptr %6, align 8
  %162 = load ptr, ptr @st_str_response_nquestions, align 8
  %163 = load ptr, ptr %11, align 8
  %164 = getelementptr inbounds nuw %struct.DnsTap, ptr %163, i32 0, i32 9
  %165 = load i32, ptr %164, align 8
  %166 = call i32 @stats_tree_manip_node_int(i32 noundef 2, ptr noundef %161, ptr noundef %162, i32 noundef 0, i1 noundef zeroext false, i32 noundef %165)
  %167 = load ptr, ptr %6, align 8
  %168 = load ptr, ptr @st_str_response_nanswers, align 8
  %169 = load ptr, ptr %11, align 8
  %170 = getelementptr inbounds nuw %struct.DnsTap, ptr %169, i32 0, i32 10
  %171 = load i32, ptr %170, align 4
  %172 = call i32 @stats_tree_manip_node_int(i32 noundef 2, ptr noundef %167, ptr noundef %168, i32 noundef 0, i1 noundef zeroext false, i32 noundef %171)
  %173 = load ptr, ptr %6, align 8
  %174 = load ptr, ptr @st_str_response_nauthorities, align 8
  %175 = load ptr, ptr %11, align 8
  %176 = getelementptr inbounds nuw %struct.DnsTap, ptr %175, i32 0, i32 11
  %177 = load i32, ptr %176, align 8
  %178 = call i32 @stats_tree_manip_node_int(i32 noundef 2, ptr noundef %173, ptr noundef %174, i32 noundef 0, i1 noundef zeroext false, i32 noundef %177)
  %179 = load ptr, ptr %6, align 8
  %180 = load ptr, ptr @st_str_response_nadditionals, align 8
  %181 = load ptr, ptr %11, align 8
  %182 = getelementptr inbounds nuw %struct.DnsTap, ptr %181, i32 0, i32 12
  %183 = load i32, ptr %182, align 4
  %184 = call i32 @stats_tree_manip_node_int(i32 noundef 2, ptr noundef %179, ptr noundef %180, i32 noundef 0, i1 noundef zeroext false, i32 noundef %183)
  %185 = load ptr, ptr %11, align 8
  %186 = getelementptr inbounds nuw %struct.DnsTap, ptr %185, i32 0, i32 13
  %187 = load i8, ptr %186, align 8, !range !9, !noundef !10
  %188 = trunc i8 %187 to i1
  br i1 %188, label %189, label %193

189:                                              ; preds = %160
  %190 = load ptr, ptr %6, align 8
  %191 = load ptr, ptr @st_str_service_unsolicited, align 8
  %192 = call i32 @stats_tree_manip_node_int(i32 noundef 0, ptr noundef %190, ptr noundef %191, i32 noundef 0, i1 noundef zeroext false, i32 noundef 1)
  br label %220

193:                                              ; preds = %160
  %194 = load ptr, ptr %11, align 8
  %195 = getelementptr inbounds nuw %struct.DnsTap, ptr %194, i32 0, i32 14
  %196 = load i8, ptr %195, align 1, !range !9, !noundef !10
  %197 = trunc i8 %196 to i1
  br i1 %197, label %198, label %202

198:                                              ; preds = %193
  %199 = load ptr, ptr %6, align 8
  %200 = load ptr, ptr @st_str_service_retransmission, align 8
  %201 = call i32 @stats_tree_manip_node_int(i32 noundef 0, ptr noundef %199, ptr noundef %200, i32 noundef 0, i1 noundef zeroext false, i32 noundef 1)
  br label %219

202:                                              ; preds = %193
  %203 = load ptr, ptr %6, align 8
  %204 = load ptr, ptr @st_str_service_rrt, align 8
  %205 = load ptr, ptr %11, align 8
  %206 = getelementptr inbounds nuw %struct.DnsTap, ptr %205, i32 0, i32 15
  %207 = getelementptr inbounds nuw %struct.nstime_t, ptr %206, i32 0, i32 0
  %208 = load i64, ptr %207, align 8
  %209 = sitofp i64 %208 to double
  %210 = load ptr, ptr %11, align 8
  %211 = getelementptr inbounds nuw %struct.DnsTap, ptr %210, i32 0, i32 15
  %212 = getelementptr inbounds nuw %struct.nstime_t, ptr %211, i32 0, i32 1
  %213 = load i32, ptr %212, align 8
  %214 = sitofp i32 %213 to double
  %215 = fdiv double %214, 1.000000e+06
  %216 = call double @llvm.fmuladd.f64(double %209, double 1.000000e+03, double %215)
  %217 = fptrunc double %216 to float
  %218 = call i32 @stats_tree_manip_node_float(i32 noundef 2, ptr noundef %203, ptr noundef %204, i32 noundef 0, i1 noundef zeroext false, float noundef %217)
  br label %219

219:                                              ; preds = %202, %198
  br label %220

220:                                              ; preds = %219, %189
  br label %221

221:                                              ; preds = %220, %156
  br label %222

222:                                              ; preds = %221, %104
  call void @llvm.lifetime.end.p0(i64 8, ptr %11) #11
  ret i32 1
}