; Function Attrs: null_pointer_is_valid sspstrong uwtable
define internal noundef i32 @dns_stats_tree_packet(ptr noundef %0, ptr readnone captures(none) %1, ptr readnone captures(none) %2, ptr noundef readonly captures(none) %3, i32 %4) #0 {
  %6 = tail call i32 @stats_tree_manip_node_int(i32 noundef 0, ptr noundef %0, ptr noundef nonnull @.str.799, i32 noundef 0, i1 noundef zeroext false, i32 noundef 1)
  %7 = load i32, ptr @st_node_packet_qr, align 4
  %8 = load i32, ptr %3, align 8
  %9 = tail call ptr @val_to_str(i32 noundef %8, ptr noundef nonnull @dns_qr_vals, ptr noundef nonnull @.str.794)
  %10 = tail call i32 @stats_tree_tick_pivot(ptr noundef %0, i32 noundef %7, ptr noundef %9)
  %11 = load i32, ptr @st_node_packet_qtypes, align 4
  %12 = getelementptr inbounds nuw i8, ptr %3, i64 4
  %13 = load i32, ptr %12, align 4
  %14 = tail call ptr @val_to_str(i32 noundef %13, ptr noundef nonnull @dns_types_vals, ptr noundef nonnull @.str.795)
  %15 = tail call i32 @stats_tree_tick_pivot(ptr noundef %0, i32 noundef %11, ptr noundef %14)
  %16 = load i8, ptr @dns_qname_stats, align 1, !range !9, !noundef !10
  %17 = trunc nuw i8 %16 to i1
  br i1 %17, label %18, label %26

18:                                               ; preds = %5
  %19 = getelementptr inbounds nuw i8, ptr %3, i64 24
  %20 = load i32, ptr %19, align 8
  %.not = icmp eq i32 %20, 0
  br i1 %.not, label %26, label %21

21:                                               ; preds = %18
  %22 = load i32, ptr @st_node_packet_qnames, align 4
  %23 = getelementptr inbounds nuw i8, ptr %3, i64 32
  %24 = load ptr, ptr %23, align 8
  %25 = tail call i32 @stats_tree_tick_pivot(ptr noundef %0, i32 noundef %22, ptr noundef %24)
  br label %26

26:                                               ; preds = %21, %18, %5
  %27 = load i32, ptr @st_node_packet_qclasses, align 4
  %28 = getelementptr inbounds nuw i8, ptr %3, i64 8
  %29 = load i32, ptr %28, align 8
  %30 = tail call ptr @val_to_str(i32 noundef %29, ptr noundef nonnull @dns_classes, ptr noundef nonnull @.str.796)
  %31 = tail call i32 @stats_tree_tick_pivot(ptr noundef %0, i32 noundef %27, ptr noundef %30)
  %32 = load i32, ptr @st_node_packet_rcodes, align 4
  %33 = getelementptr inbounds nuw i8, ptr %3, i64 12
  %34 = load i32, ptr %33, align 4
  %35 = tail call ptr @val_to_str(i32 noundef %34, ptr noundef nonnull @rcode_vals, ptr noundef nonnull @.str.797)
  %36 = tail call i32 @stats_tree_tick_pivot(ptr noundef %0, i32 noundef %32, ptr noundef %35)
  %37 = load i32, ptr @st_node_packet_opcodes, align 4
  %38 = getelementptr inbounds nuw i8, ptr %3, i64 16
  %39 = load i32, ptr %38, align 8
  %40 = tail call ptr @val_to_str(i32 noundef %39, ptr noundef nonnull @opcode_vals, ptr noundef nonnull @.str.798)
  %41 = tail call i32 @stats_tree_tick_pivot(ptr noundef %0, i32 noundef %37, ptr noundef %40)
  %42 = getelementptr inbounds nuw i8, ptr %3, i64 20
  %43 = load i32, ptr %42, align 4
  %44 = tail call i32 @stats_tree_manip_node_int(i32 noundef 2, ptr noundef %0, ptr noundef nonnull @.str.891, i32 noundef 0, i1 noundef zeroext false, i32 noundef %43)
  %45 = load i32, ptr %3, align 8
  %46 = icmp eq i32 %45, 0
  br i1 %46, label %47, label %61

47:                                               ; preds = %26
  %48 = getelementptr inbounds nuw i8, ptr %3, i64 24
  %49 = load i32, ptr %48, align 8
  %50 = tail call i32 @stats_tree_manip_node_int(i32 noundef 2, ptr noundef %0, ptr noundef nonnull @.str.892, i32 noundef 0, i1 noundef zeroext false, i32 noundef %49)
  %51 = getelementptr inbounds nuw i8, ptr %3, i64 28
  %52 = load i32, ptr %51, align 4
  switch i32 %52, label %59 [
    i32 1, label %53
    i32 2, label %55
    i32 3, label %57
  ]

53:                                               ; preds = %47
  %54 = tail call i32 @stats_tree_manip_node_int(i32 noundef 0, ptr noundef %0, ptr noundef nonnull @.str.893, i32 noundef 0, i1 noundef zeroext false, i32 noundef 1)
  br label %119

55:                                               ; preds = %47
  %56 = tail call i32 @stats_tree_manip_node_int(i32 noundef 0, ptr noundef %0, ptr noundef nonnull @.str.894, i32 noundef 0, i1 noundef zeroext false, i32 noundef 1)
  br label %119

57:                                               ; preds = %47
  %58 = tail call i32 @stats_tree_manip_node_int(i32 noundef 0, ptr noundef %0, ptr noundef nonnull @.str.895, i32 noundef 0, i1 noundef zeroext false, i32 noundef 1)
  br label %119

59:                                               ; preds = %47
  %60 = tail call i32 @stats_tree_manip_node_int(i32 noundef 0, ptr noundef %0, ptr noundef nonnull @.str.896, i32 noundef 0, i1 noundef zeroext false, i32 noundef 1)
  br label %119

61:                                               ; preds = %26
  %62 = getelementptr inbounds nuw i8, ptr %3, i64 40
  %63 = load i32, ptr %62, align 8
  %64 = tail call i32 @stats_tree_manip_node_int(i32 noundef 2, ptr noundef %0, ptr noundef nonnull @.str.897, i32 noundef 0, i1 noundef zeroext false, i32 noundef %63)
  %65 = getelementptr inbounds nuw i8, ptr %3, i64 44
  %66 = load i32, ptr %65, align 4
  %67 = tail call i32 @stats_tree_manip_node_int(i32 noundef 2, ptr noundef %0, ptr noundef nonnull @.str.898, i32 noundef 0, i1 noundef zeroext false, i32 noundef %66)
  %68 = getelementptr inbounds nuw i8, ptr %3, i64 48
  %69 = load i32, ptr %68, align 8
  %70 = tail call i32 @stats_tree_manip_node_int(i32 noundef 2, ptr noundef %0, ptr noundef nonnull @.str.899, i32 noundef 0, i1 noundef zeroext false, i32 noundef %69)
  %71 = getelementptr inbounds nuw i8, ptr %3, i64 52
  %72 = load i32, ptr %71, align 4
  %73 = tail call i32 @stats_tree_manip_node_int(i32 noundef 2, ptr noundef %0, ptr noundef nonnull @.str.900, i32 noundef 0, i1 noundef zeroext false, i32 noundef %72)
  %74 = getelementptr inbounds nuw i8, ptr %3, i64 80
  %75 = load ptr, ptr %74, align 8
  %76 = tail call ptr @wmem_list_head(ptr noundef %75)
  %.not5556 = icmp eq ptr %76, null
  br i1 %.not5556, label %._crit_edge, label %.lr.ph

._crit_edge:                                      ; preds = %.lr.ph, %61
  %77 = getelementptr inbounds nuw i8, ptr %3, i64 56
  %78 = load i8, ptr %77, align 8, !range !9, !noundef !10
  %79 = trunc nuw i8 %78 to i1
  br i1 %79, label %87, label %89

.lr.ph:                                           ; preds = %61, %.lr.ph
  %.057 = phi ptr [ %86, %.lr.ph ], [ %76, %61 ]
  %80 = tail call ptr @wmem_list_frame_data(ptr noundef nonnull %.057)
  %81 = ptrtoint ptr %80 to i64
  %82 = trunc i64 %81 to i32
  %83 = load i32, ptr @st_node_rr_types, align 4
  %84 = tail call ptr @val_to_str(i32 noundef %82, ptr noundef nonnull @dns_types_vals, ptr noundef nonnull @.str.795)
  %85 = tail call i32 @stats_tree_tick_pivot(ptr noundef %0, i32 noundef %83, ptr noundef %84)
  %86 = tail call ptr @wmem_list_frame_next(ptr noundef nonnull %.057)
  %.not55 = icmp eq ptr %86, null
  br i1 %.not55, label %._crit_edge, label %.lr.ph, !llvm.loop !11

87:                                               ; preds = %._crit_edge
  %88 = tail call i32 @stats_tree_manip_node_int(i32 noundef 0, ptr noundef %0, ptr noundef nonnull @.str.901, i32 noundef 0, i1 noundef zeroext false, i32 noundef 1)
  br label %119

89:                                               ; preds = %._crit_edge
  %90 = load i32, ptr %62, align 8
  %91 = tail call i32 @stats_tree_manip_node_int(i32 noundef 2, ptr noundef %0, ptr noundef nonnull @.str.897, i32 noundef 0, i1 noundef zeroext false, i32 noundef %90)
  %92 = load i32, ptr %65, align 4
  %93 = tail call i32 @stats_tree_manip_node_int(i32 noundef 2, ptr noundef %0, ptr noundef nonnull @.str.898, i32 noundef 0, i1 noundef zeroext false, i32 noundef %92)
  %94 = load i32, ptr %68, align 8
  %95 = tail call i32 @stats_tree_manip_node_int(i32 noundef 2, ptr noundef %0, ptr noundef nonnull @.str.899, i32 noundef 0, i1 noundef zeroext false, i32 noundef %94)
  %96 = load i32, ptr %71, align 4
  %97 = tail call i32 @stats_tree_manip_node_int(i32 noundef 2, ptr noundef %0, ptr noundef nonnull @.str.900, i32 noundef 0, i1 noundef zeroext false, i32 noundef %96)
  %98 = load i8, ptr %77, align 8, !range !9, !noundef !10
  %99 = trunc nuw i8 %98 to i1
  br i1 %99, label %100, label %102

100:                                              ; preds = %89
  %101 = tail call i32 @stats_tree_manip_node_int(i32 noundef 0, ptr noundef %0, ptr noundef nonnull @.str.901, i32 noundef 0, i1 noundef zeroext false, i32 noundef 1)
  br label %119

102:                                              ; preds = %89
  %103 = getelementptr inbounds nuw i8, ptr %3, i64 57
  %104 = load i8, ptr %103, align 1, !range !9, !noundef !10
  %105 = trunc nuw i8 %104 to i1
  br i1 %105, label %106, label %108

106:                                              ; preds = %102
  %107 = tail call i32 @stats_tree_manip_node_int(i32 noundef 0, ptr noundef %0, ptr noundef nonnull @.str.902, i32 noundef 0, i1 noundef zeroext false, i32 noundef 1)
  br label %119

108:                                              ; preds = %102
  %109 = getelementptr inbounds nuw i8, ptr %3, i64 64
  %110 = load i64, ptr %109, align 8
  %111 = sitofp i64 %110 to double
  %112 = getelementptr inbounds nuw i8, ptr %3, i64 72
  %113 = load i32, ptr %112, align 8
  %114 = sitofp i32 %113 to double
  %115 = fdiv double %114, 1.000000e+06
  %116 = tail call double @llvm.fmuladd.f64(double %111, double 1.000000e+03, double %115)
  %117 = fptrunc double %116 to float
  %118 = tail call i32 @stats_tree_manip_node_float(i32 noundef 2, ptr noundef %0, ptr noundef nonnull @.str.903, i32 noundef 0, i1 noundef zeroext false, float noundef %117)
  br label %119

119:                                              ; preds = %87, %106, %108, %100, %53, %55, %57, %59
  ret i32 1
}